ccopy_reg
_reconstructor
p1
(cneat.chromosome
FFChromosome
p2
c__builtin__
object
p3
NtRp4
(dp5
S'species_id'
p6
I1
sS'_node_gene_type'
p7
cneat.genome
NodeGene
p8
sS'_connection_genes'
p9
(dp10
(I1
I4
tp11
g1
(cneat.genome
ConnectionGene
p12
g3
NtRp13
(dp14
S'_ConnectionGene__weight'
p15
F4.8271247798574475
sS'_ConnectionGene__in'
p16
I1
sS'_ConnectionGene__enabled'
p17
I01
sS'_ConnectionGene__out'
p18
I4
sS'_ConnectionGene__innov_number'
p19
I1
sbs(I1
I5
tp20
g1
(g12
g3
NtRp21
(dp22
g15
F-1.6679842458494045
sg16
I1
sg17
I01
sg18
I5
sg19
I4
sbs(I2
I5
tp23
g1
(g12
g3
NtRp24
(dp25
g15
F5.1957645248832156
sg16
I2
sg17
I01
sg18
I5
sg19
I5
sbs(I3
I4
tp26
g1
(g12
g3
NtRp27
(dp28
g15
F-8.3668958112592939
sg16
I3
sg17
I01
sg18
I4
sg19
I3
sbs(I2
I4
tp29
g1
(g12
g3
NtRp30
(dp31
g15
F-7.0917811990174915
sg16
I2
sg17
I01
sg18
I4
sg19
I2
sbs(I3
I5
tp32
g1
(g12
g3
NtRp33
(dp34
g15
F-1.6827451524934043
sg16
I3
sg17
I01
sg18
I5
sg19
I6
sbssS'parent1_id'
p35
I205
sS'_output_nodes'
p36
I2
sS'_input_nodes'
p37
I3
sS'_node_genes'
p38
(lp39
g1
(g8
g3
NtRp40
(dp41
S'_bias'
p42
I0
sS'_type'
p43
S'INPUT'
p44
sS'_id'
p45
I1
sS'_response'
p46
F4.9242730000000003
sS'_activation_type'
p47
Nsbag1
(g8
g3
NtRp48
(dp49
g42
I0
sg43
g44
sg45
I2
sg46
F4.9242730000000003
sg47
Nsbag1
(g8
g3
NtRp50
(dp51
g42
I0
sg43
g44
sg45
I3
sg46
F4.9242730000000003
sg47
Nsbag1
(g8
g3
NtRp52
(dp53
g42
I0
sg43
S'OUTPUT'
p54
sg45
I4
sg46
F5.0334580424226703
sg47
S'tanh'
p55
sbag1
(g8
g3
NtRp56
(dp57
g42
F-0.96376034338578087
sg43
g54
sg45
I5
sg46
F5.2282927934448438
sg47
g55
sbasS'_conn_gene_type'
p58
g12
sS'fitness'
p59
F138.30521546740289
sS'parent2_id'
p60
I205
sg45
I217
sS'_FFChromosome__node_order'
p61
(lp62
sS'parasite_chrom'
p63
g1
(cneat.parasite_chromosome
ParasiteChromosome
p64
g3
NtRp65
(dp66
g6
Nsg9
(dp67
(I2
I7
tp68
g1
(g12
g3
NtRp69
(dp70
g15
F0.034154425997868471
sg16
I2
sg17
I01
sg18
I7
sg19
I11
sbs(I2
I6
tp71
g1
(g12
g3
NtRp72
(dp73
g15
F-0.33339855689911785
sg16
I2
sg17
I01
sg18
I6
sg19
I8
sbs(I1
I4
tp74
g1
(g12
g3
NtRp75
(dp76
g15
F-1.1730261309215213
sg16
I1
sg17
I01
sg18
I4
sg19
I1
sbs(I1
I5
tp77
g1
(g12
g3
NtRp78
(dp79
g15
F-0.68835340083210761
sg16
I1
sg17
I01
sg18
I5
sg19
I4
sbs(I1
I6
tp80
g1
(g12
g3
NtRp81
(dp82
g15
F-1.1898911801616987
sg16
I1
sg17
I01
sg18
I6
sg19
I7
sbs(I3
I6
tp83
g1
(g12
g3
NtRp84
(dp85
g15
F-0.4519615940442922
sg16
I3
sg17
I01
sg18
I6
sg19
I9
sbs(I1
I7
tp86
g1
(g12
g3
NtRp87
(dp88
g15
F0.70142718843786867
sg16
I1
sg17
I01
sg18
I7
sg19
I10
sbs(I3
I7
tp89
g1
(g12
g3
NtRp90
(dp91
g15
F-0.56756980772058918
sg16
I3
sg17
I01
sg18
I7
sg19
I12
sbs(I2
I5
tp92
g1
(g12
g3
NtRp93
(dp94
g15
F-1.1437078320600207
sg16
I2
sg17
I01
sg18
I5
sg19
I5
sbs(I3
I4
tp95
g1
(g12
g3
NtRp96
(dp97
g15
F0.76300939164966708
sg16
I3
sg17
I01
sg18
I4
sg19
I3
sbs(I2
I4
tp98
g1
(g12
g3
NtRp99
(dp100
g15
F0.67556661854368305
sg16
I2
sg17
I01
sg18
I4
sg19
I2
sbs(I3
I5
tp101
g1
(g12
g3
NtRp102
(dp103
g15
F0.034934852041900555
sg16
I3
sg17
I01
sg18
I5
sg19
I6
sbssg37
I3
sg36
I4
sg7
g8
sg58
g12
sg59
Nsg60
I0
sg45
I9
sg35
I0
sg38
(lp104
g1
(g8
g3
NtRp105
(dp106
g42
I0
sg43
S'INPUT'
p107
sg45
I1
sg46
F4.9242730000000003
sg47
Nsbag1
(g8
g3
NtRp108
(dp109
g42
I0
sg43
g107
sg45
I2
sg46
F4.9242730000000003
sg47
Nsbag1
(g8
g3
NtRp110
(dp111
g42
I0
sg43
g107
sg45
I3
sg46
F4.9242730000000003
sg47
Nsbag1
(g8
g3
NtRp112
(dp113
g42
I0
sg43
S'OUTPUT'
p114
sg45
I4
sg46
F4.9242730000000003
sg47
S'tanh'
p115
sbag1
(g8
g3
NtRp116
(dp117
g42
I0
sg43
g114
sg45
I5
sg46
F4.9242730000000003
sg47
g115
sbag1
(g8
g3
NtRp118
(dp119
g42
I0
sg43
g114
sg45
I6
sg46
F4.9242730000000003
sg47
g115
sbag1
(g8
g3
NtRp120
(dp121
g42
I0
sg43
g114
sg45
I7
sg46
F4.9242730000000003
sg47
g115
sbasbsb.