ccopy_reg
_reconstructor
p1
(cneat.chromosome
FFChromosome
p2
c__builtin__
object
p3
NtRp4
(dp5
S'species_id'
p6
I1
sS'_connection_genes'
p7
(dp8
(I1
I4
tp9
g1
(cneat.genome
ConnectionGene
p10
g3
NtRp11
(dp12
S'_ConnectionGene__weight'
p13
F4.3834749735255976
sS'_ConnectionGene__in'
p14
I1
sS'_ConnectionGene__enabled'
p15
I01
sS'_ConnectionGene__out'
p16
I4
sS'_ConnectionGene__innov_number'
p17
I1
sbs(I1
I5
tp18
g1
(g10
g3
NtRp19
(dp20
g13
F-3.4718639771890407
sg14
I1
sg15
I01
sg16
I5
sg17
I4
sbs(I2
I5
tp21
g1
(g10
g3
NtRp22
(dp23
g13
F4.0815775159574628
sg14
I2
sg15
I01
sg16
I5
sg17
I5
sbs(I3
I4
tp24
g1
(g10
g3
NtRp25
(dp26
g13
F-7.4495419096421323
sg14
I3
sg15
I01
sg16
I4
sg17
I3
sbs(I2
I4
tp27
g1
(g10
g3
NtRp28
(dp29
g13
F-6.1148606351782675
sg14
I2
sg15
I01
sg16
I4
sg17
I2
sbs(I3
I5
tp30
g1
(g10
g3
NtRp31
(dp32
g13
F-4.174892743105648
sg14
I3
sg15
I01
sg16
I5
sg17
I6
sbssS'_input_nodes'
p33
I3
sS'_output_nodes'
p34
I2
sS'_node_gene_type'
p35
cneat.genome
NodeGene
p36
sS'_FFChromosome__node_order'
p37
(lp38
sS'_conn_gene_type'
p39
g10
sS'fitness'
p40
F0.81281249999999994
sS'parent2_id'
p41
I155
sS'_id'
p42
I173
sS'parent1_id'
p43
I162
sS'_node_genes'
p44
(lp45
g1
(g36
g3
NtRp46
(dp47
S'_bias'
p48
I0
sS'_type'
p49
S'INPUT'
p50
sg42
I1
sS'_response'
p51
F4.9242730000000003
sS'_activation_type'
p52
Nsbag1
(g36
g3
NtRp53
(dp54
g48
I0
sg49
g50
sg42
I2
sg51
F4.9242730000000003
sg52
Nsbag1
(g36
g3
NtRp55
(dp56
g48
I0
sg49
g50
sg42
I3
sg51
F4.9242730000000003
sg52
Nsbag1
(g36
g3
NtRp57
(dp58
g48
I0
sg49
S'OUTPUT'
p59
sg42
I4
sg51
F4.3764522818149585
sg52
S'tanh'
p60
sbag1
(g36
g3
NtRp61
(dp62
g48
F-0.23791499276515446
sg49
g59
sg42
I5
sg51
F5.2282927934448438
sg52
g60
sbasb.